#include <math.h>
#include <stdio.h>
#include <stdlib.h>
#include <string.h>

int main()
{ 
  int w;
  scanf("%d",&w);
  int a[12]={13,31,28,31,30,31,30,31,31,30,31,30};
  int i;
  for(i=1;i<12;i++) a[i]+=a[i-1];
  for(i=0;i<12;i++)
  if(((a[i]-1)%7+w)%7==5) printf("%d\n",i+1);
}